; Function Attrs: nounwind uwtable
define dso_local void @defragQuicklist(ptr noundef readonly captures(none) %0, ptr noundef %1) local_unnamed_addr #0 {
  %3 = alloca ptr, align 8
  %4 = tail call ptr @dictGetVal(ptr noundef %1) #10
  %5 = getelementptr inbounds nuw i8, ptr %4, i64 8
  %6 = load ptr, ptr %5, align 8, !tbaa !41
  %7 = load i32, ptr %4, align 8
  %8 = and i32 %7, 255
  %9 = icmp eq i32 %8, 145
  br i1 %9, label %11, label %10, !prof !58

10:                                               ; preds = %2
  tail call void @_serverAssert(ptr noundef nonnull @.str.8, ptr noundef nonnull @.str, i32 noundef 501) #10
  tail call void @abort() #11
  unreachable

11:                                               ; preds = %2
  %12 = tail call i32 @je_get_defrag_hint(ptr noundef %6) #10
  %.not.i = icmp eq i32 %12, 0
  br i1 %.not.i, label %activeDefragAlloc.exit.thread, label %activeDefragAlloc.exit

activeDefragAlloc.exit.thread:                    ; preds = %11
  %13 = load i64, ptr getelementptr inbounds nuw (i8, ptr @server, i64 2592), align 8, !tbaa !5
  %14 = add nsw i64 %13, 1
  store i64 %14, ptr getelementptr inbounds nuw (i8, ptr @server, i64 2592), align 8, !tbaa !5
  br label %20

activeDefragAlloc.exit:                           ; preds = %11
  %15 = tail call i64 @je_malloc_usable_size(ptr noundef %6) #10
  %16 = tail call noalias ptr @zmalloc_no_tcache(i64 noundef %15) #10
  tail call void @llvm.memcpy.p0.p0.i64(ptr align 1 %16, ptr align 1 %6, i64 %15, i1 false)
  tail call void @zfree_no_tcache(ptr noundef %6) #10
  %17 = load i64, ptr getelementptr inbounds nuw (i8, ptr @server, i64 2584), align 8, !tbaa !38
  %18 = add nsw i64 %17, 1
  store i64 %18, ptr getelementptr inbounds nuw (i8, ptr @server, i64 2584), align 8, !tbaa !38
  %.not = icmp eq ptr %16, null
  br i1 %.not, label %20, label %19

19:                                               ; preds = %activeDefragAlloc.exit
  store ptr %16, ptr %5, align 8, !tbaa !41
  br label %20

20:                                               ; preds = %activeDefragAlloc.exit.thread, %19, %activeDefragAlloc.exit
  %.0 = phi ptr [ %16, %19 ], [ %6, %activeDefragAlloc.exit ], [ %6, %activeDefragAlloc.exit.thread ]
  %21 = getelementptr inbounds nuw i8, ptr %.0, i64 24
  %22 = load i64, ptr %21, align 8, !tbaa !94
  %23 = load i64, ptr getelementptr inbounds nuw (i8, ptr @server, i64 6360), align 8, !tbaa !100
  %24 = icmp ugt i64 %22, %23
  br i1 %24, label %25, label %31

25:                                               ; preds = %20
  %26 = tail call ptr @dictGetKey(ptr noundef %1) #10
  %27 = tail call ptr @sdsdup(ptr noundef %26) #10
  %28 = getelementptr inbounds nuw i8, ptr %0, i64 80
  %29 = load ptr, ptr %28, align 8, !tbaa !90
  %30 = tail call ptr @listAddNodeTail(ptr noundef %29, ptr noundef %27) #10
  br label %34

31:                                               ; preds = %20
  call void @llvm.lifetime.start.p0(i64 8, ptr nonnull %3) #10
  %storemerge2.i = load ptr, ptr %.0, align 8, !tbaa !83
  store ptr %storemerge2.i, ptr %3, align 8, !tbaa !83
  %.not3.i = icmp eq ptr %storemerge2.i, null
  br i1 %.not3.i, label %activeDefragQuickListNodes.exit, label %.lr.ph.i

.lr.ph.i:                                         ; preds = %31, %.lr.ph.i
  call void @activeDefragQuickListNode(ptr noundef nonnull %.0, ptr noundef nonnull %3)
  %32 = load ptr, ptr %3, align 8, !tbaa !83
  %33 = getelementptr inbounds nuw i8, ptr %32, i64 8
  %storemerge.i = load ptr, ptr %33, align 8, !tbaa !83
  store ptr %storemerge.i, ptr %3, align 8, !tbaa !83
  %.not.i12 = icmp eq ptr %storemerge.i, null
  br i1 %.not.i12, label %activeDefragQuickListNodes.exit, label %.lr.ph.i, !llvm.loop !89

activeDefragQuickListNodes.exit:                  ; preds = %.lr.ph.i, %31
  call void @llvm.lifetime.end.p0(i64 8, ptr nonnull %3) #10
  br label %34

34:                                               ; preds = %activeDefragQuickListNodes.exit, %25
  ret void
}